; Function Attrs: nounwind uwtable
define range(i32 0, 2) i32 @ossl_qrl_enc_level_set_key_cooldown_done(ptr noundef %0, i32 noundef %1) local_unnamed_addr #2 {
  %3 = alloca [64 x i8], align 16
  %4 = icmp ult i32 %1, 4
  br i1 %4, label %ossl_qrl_enc_level_set_get.exit, label %ossl_qrl_enc_level_set_get.exit.thread, !prof !3

ossl_qrl_enc_level_set_get.exit.thread:           ; preds = %2
  call void @llvm.lifetime.start.p0(i64 64, ptr nonnull %3) #6
  br label %9

ossl_qrl_enc_level_set_get.exit:                  ; preds = %2
  %5 = zext nneg i32 %1 to i64
  %6 = getelementptr inbounds nuw [4 x %struct.ossl_qrl_enc_level_st], ptr %0, i64 0, i64 %5
  call void @llvm.lifetime.start.p0(i64 64, ptr nonnull %3) #6
  %7 = icmp ne ptr %0, null
  %8 = icmp eq i32 %1, 3
  %or.cond = and i1 %7, %8
  br i1 %or.cond, label %10, label %9, !prof !30

9:                                                ; preds = %ossl_qrl_enc_level_set_get.exit.thread, %ossl_qrl_enc_level_set_get.exit
  tail call void @ERR_new() #6
  tail call void @ERR_set_debug(ptr noundef nonnull @.str, i32 noundef 429, ptr noundef nonnull @__func__.ossl_qrl_enc_level_set_key_cooldown_done) #6
  tail call void (i32, i32, ptr, ...) @ERR_set_error(i32 noundef 20, i32 noundef 524550, ptr noundef null) #6
  br label %el_teardown_keyslot.exit

10:                                               ; preds = %ossl_qrl_enc_level_set_get.exit
  %11 = getelementptr inbounds nuw i8, ptr %6, i64 104
  %12 = load i8, ptr %11, align 8, !tbaa !4
  %13 = icmp eq i8 %12, 2
  br i1 %13, label %14, label %17

14:                                               ; preds = %10
  %15 = tail call i32 @ossl_qrl_enc_level_set_key_update_done(ptr noundef nonnull %0, i32 noundef 3)
  %.not = icmp eq i32 %15, 0
  br i1 %.not, label %16, label %thread-pre-split

16:                                               ; preds = %14
  tail call void @ERR_new() #6
  tail call void @ERR_set_debug(ptr noundef nonnull @.str, i32 noundef 435, ptr noundef nonnull @__func__.ossl_qrl_enc_level_set_key_cooldown_done) #6
  tail call void (i32, i32, ptr, ...) @ERR_set_error(i32 noundef 20, i32 noundef 786691, ptr noundef null) #6
  br label %el_teardown_keyslot.exit

thread-pre-split:                                 ; preds = %14
  %.pr = load i8, ptr %11, align 8, !tbaa !4
  br label %17

17:                                               ; preds = %thread-pre-split, %10
  %18 = phi i8 [ %.pr, %thread-pre-split ], [ %12, %10 ]
  %.not27 = icmp eq i8 %18, 3
  br i1 %.not27, label %20, label %19

19:                                               ; preds = %17
  tail call void @ERR_new() #6
  tail call void @ERR_set_debug(ptr noundef nonnull @.str, i32 noundef 440, ptr noundef nonnull @__func__.ossl_qrl_enc_level_set_key_cooldown_done) #6
  tail call void (i32, i32, ptr, ...) @ERR_set_error(i32 noundef 20, i32 noundef 786691, ptr noundef null) #6
  br label %el_teardown_keyslot.exit

20:                                               ; preds = %17
  %21 = getelementptr inbounds nuw i8, ptr %6, i64 96
  %22 = load i32, ptr %21, align 8, !tbaa !22
  %23 = tail call i32 @ossl_qrl_get_suite_secret_len(i32 noundef %22) #6
  %24 = zext i32 %23 to i64
  %25 = getelementptr inbounds nuw i8, ptr %6, i64 80
  %26 = load i64, ptr %25, align 8, !tbaa !18
  %27 = and i64 %26, 1
  %28 = xor i64 %27, 1
  %29 = getelementptr inbounds nuw i8, ptr %6, i64 138
  %30 = tail call fastcc i32 @el_setup_keyslot(ptr noundef nonnull %0, i32 noundef 3, i64 noundef %28, ptr noundef nonnull %29, i64 noundef %24)
  %.not28 = icmp eq i32 %30, 0
  br i1 %.not28, label %el_teardown_keyslot.exit, label %31

31:                                               ; preds = %20
  %32 = getelementptr inbounds nuw i8, ptr %6, i64 64
  %33 = load ptr, ptr %32, align 8, !tbaa !19
  %34 = getelementptr inbounds nuw i8, ptr %6, i64 72
  %35 = load ptr, ptr %34, align 8, !tbaa !20
  %36 = getelementptr inbounds nuw i8, ptr %6, i64 40
  %37 = load ptr, ptr %36, align 8, !tbaa !21
  %38 = call i32 @tls13_hkdf_expand_ex(ptr noundef %33, ptr noundef %35, ptr noundef %37, ptr noundef nonnull %29, ptr noundef nonnull @quic_v1_ku_label, i64 noundef 7, ptr noundef null, i64 noundef 0, ptr noundef nonnull %3, i64 noundef %24, i32 noundef 1) #6
  %.not29 = icmp eq i32 %38, 0
  br i1 %.not29, label %39, label %57

39:                                               ; preds = %31
  %40 = load i64, ptr %25, align 8, !tbaa !18
  %41 = and i64 %40, 1
  %42 = xor i64 %41, 1
  %43 = getelementptr inbounds nuw i8, ptr %0, i64 728
  %44 = load i8, ptr %43, align 8, !tbaa !4
  switch i8 %44, label %el_teardown_keyslot.exit [
    i8 1, label %ossl_qrl_enc_level_set_has_keyslot.exit.i
    i8 2, label %ossl_qrl_enc_level_set_has_keyslot.exit.i
    i8 3, label %45
  ]

45:                                               ; preds = %39
  %46 = getelementptr inbounds nuw i8, ptr %0, i64 704
  %47 = load i64, ptr %46, align 8, !tbaa !18
  %48 = and i64 %47, 1
  %49 = icmp eq i64 %42, %48
  br i1 %49, label %ossl_qrl_enc_level_set_has_keyslot.exit.i, label %el_teardown_keyslot.exit

ossl_qrl_enc_level_set_has_keyslot.exit.i:        ; preds = %39, %39, %45
  %50 = getelementptr inbounds nuw i8, ptr %0, i64 672
  %51 = getelementptr inbounds nuw [2 x ptr], ptr %50, i64 0, i64 %42
  %52 = load ptr, ptr %51, align 8, !tbaa !26
  %.not13.i = icmp eq ptr %52, null
  br i1 %.not13.i, label %54, label %53

53:                                               ; preds = %ossl_qrl_enc_level_set_has_keyslot.exit.i
  call void @EVP_CIPHER_CTX_free(ptr noundef nonnull %52) #6
  store ptr null, ptr %51, align 8, !tbaa !26
  br label %54

54:                                               ; preds = %53, %ossl_qrl_enc_level_set_has_keyslot.exit.i
  %55 = getelementptr inbounds nuw i8, ptr %0, i64 730
  %56 = getelementptr inbounds nuw [2 x [16 x i8]], ptr %55, i64 0, i64 %42
  call void @OPENSSL_cleanse(ptr noundef nonnull %56, i64 noundef 16) #6
  br label %el_teardown_keyslot.exit

57:                                               ; preds = %31
  call void @llvm.memcpy.p0.p0.i64(ptr nonnull align 2 %29, ptr nonnull align 16 %3, i64 %24, i1 false)
  store i8 1, ptr %11, align 8, !tbaa !4
  br label %el_teardown_keyslot.exit

el_teardown_keyslot.exit:                         ; preds = %54, %45, %39, %20, %57, %19, %16, %9
  %.0 = phi i32 [ 0, %9 ], [ 0, %19 ], [ 1, %57 ], [ 0, %16 ], [ 0, %20 ], [ 0, %39 ], [ 0, %45 ], [ 0, %54 ]
  call void @llvm.lifetime.end.p0(i64 64, ptr nonnull %3) #6
  ret i32 %.0
}